target datalayout = "e-m:e-p270:32:32-p271:32:32-p272:64:64-i64:64-i128:128-f80:128-n8:16:32:64-S128"
target triple = "x86_64-pc-linux-gnu"

%struct._zend_refcounted_h = type { i32, %union.anon }
%union.anon = type { i32 }
%struct._zend_string = type { %struct._zend_refcounted_h, i64, i64, [1 x i8] }

@base64_table = internal constant [65 x i8] c"ABCDEFGHIJKLMNOPQRSTUVWXYZabcdefghijklmnopqrstuvwxyz0123456789+/\00", align 16

; Function Attrs: nounwind uwtable
define hidden ptr @php_base64_encode_default(ptr noundef %0, i64 noundef %1) #6 {
  %3 = alloca ptr, align 8
  %4 = alloca i32, align 4
  %5 = alloca ptr, align 8
  %6 = alloca i64, align 8
  %7 = alloca ptr, align 8
  %8 = alloca i64, align 8
  %9 = alloca i64, align 8
  %10 = alloca i64, align 8
  %11 = alloca i8, align 1
  %12 = alloca ptr, align 8
  %13 = alloca ptr, align 8
  %14 = alloca i64, align 8
  %15 = alloca ptr, align 8
  %16 = alloca ptr, align 8
  store ptr %0, ptr %13, align 8
  store i64 %1, ptr %14, align 8
  %17 = load i64, ptr %14, align 8
  %18 = add i64 %17, 2
  %19 = udiv i64 %18, 3
  store i64 %19, ptr %8, align 8
  store i64 4, ptr %9, align 8
  store i64 0, ptr %10, align 8
  store i8 0, ptr %11, align 1
  %20 = load i8, ptr %11, align 1
  %21 = trunc i8 %20 to i1
  br i1 %21, label %22, label %32

22:                                               ; preds = %2
  %23 = load i64, ptr %8, align 8
  %24 = load i64, ptr %9, align 8
  %25 = load i64, ptr %10, align 8
  %26 = add i64 24, %25
  %27 = add i64 %26, 1
  %28 = add i64 %27, 8
  %29 = sub i64 %28, 1
  %30 = and i64 %29, -8
  %31 = call noalias ptr @_safe_malloc(i64 noundef %23, i64 noundef %24, i64 noundef %30) #13
  br label %42

32:                                               ; preds = %2
  %33 = load i64, ptr %8, align 8
  %34 = load i64, ptr %9, align 8
  %35 = load i64, ptr %10, align 8
  %36 = add i64 24, %35
  %37 = add i64 %36, 1
  %38 = add i64 %37, 8
  %39 = sub i64 %38, 1
  %40 = and i64 %39, -8
  %41 = call noalias ptr @_safe_emalloc(i64 noundef %33, i64 noundef %34, i64 noundef %40) #13
  br label %42

42:                                               ; preds = %32, %22
  %43 = phi ptr [ %31, %22 ], [ %41, %32 ]
  store ptr %43, ptr %12, align 8
  %44 = load ptr, ptr %12, align 8
  store ptr %44, ptr %3, align 8
  store i32 1, ptr %4, align 4
  %45 = load i32, ptr %4, align 4
  %46 = load ptr, ptr %3, align 8
  store i32 %45, ptr %46, align 4
  %47 = load i8, ptr %11, align 1
  %48 = trunc i8 %47 to i1
  %49 = select i1 %48, i32 128, i32 0
  %50 = or i32 22, %49
  %51 = load ptr, ptr %12, align 8
  %52 = getelementptr inbounds %struct._zend_refcounted_h, ptr %51, i32 0, i32 1
  store i32 %50, ptr %52, align 4
  %53 = load ptr, ptr %12, align 8
  %54 = getelementptr inbounds %struct._zend_string, ptr %53, i32 0, i32 1
  store i64 0, ptr %54, align 8
  %55 = load i64, ptr %8, align 8
  %56 = load i64, ptr %9, align 8
  %57 = mul i64 %55, %56
  %58 = load i64, ptr %10, align 8
  %59 = add i64 %57, %58
  %60 = load ptr, ptr %12, align 8
  %61 = getelementptr inbounds %struct._zend_string, ptr %60, i32 0, i32 2
  store i64 %59, ptr %61, align 8
  %62 = load ptr, ptr %12, align 8
  store ptr %62, ptr %16, align 8
  %63 = load ptr, ptr %16, align 8
  %64 = getelementptr inbounds %struct._zend_string, ptr %63, i32 0, i32 3
  %65 = getelementptr inbounds [1 x i8], ptr %64, i64 0, i64 0
  store ptr %65, ptr %15, align 8
  %66 = load ptr, ptr %13, align 8
  %67 = load i64, ptr %14, align 8
  %68 = load ptr, ptr %15, align 8
  store ptr %66, ptr %5, align 8
  store i64 %67, ptr %6, align 8
  store ptr %68, ptr %7, align 8
  br label %69

69:                                               ; preds = %72, %42
  %70 = load i64, ptr %6, align 8
  %71 = icmp ugt i64 %70, 2
  br i1 %71, label %72, label %129

72:                                               ; preds = %69
  %73 = load ptr, ptr %5, align 8
  %74 = load i8, ptr %73, align 1
  %75 = zext i8 %74 to i32
  %76 = ashr i32 %75, 2
  %77 = sext i32 %76 to i64
  %78 = getelementptr inbounds [65 x i8], ptr @base64_table, i64 0, i64 %77
  %79 = load i8, ptr %78, align 1
  %80 = load ptr, ptr %7, align 8
  %81 = getelementptr inbounds i8, ptr %80, i32 1
  store ptr %81, ptr %7, align 8
  store i8 %79, ptr %80, align 1
  %82 = load ptr, ptr %5, align 8
  %83 = load i8, ptr %82, align 1
  %84 = zext i8 %83 to i32
  %85 = and i32 %84, 3
  %86 = shl i32 %85, 4
  %87 = load ptr, ptr %5, align 8
  %88 = getelementptr inbounds i8, ptr %87, i64 1
  %89 = load i8, ptr %88, align 1
  %90 = zext i8 %89 to i32
  %91 = ashr i32 %90, 4
  %92 = add nsw i32 %86, %91
  %93 = sext i32 %92 to i64
  %94 = getelementptr inbounds [65 x i8], ptr @base64_table, i64 0, i64 %93
  %95 = load i8, ptr %94, align 1
  %96 = load ptr, ptr %7, align 8
  %97 = getelementptr inbounds i8, ptr %96, i32 1
  store ptr %97, ptr %7, align 8
  store i8 %95, ptr %96, align 1
  %98 = load ptr, ptr %5, align 8
  %99 = getelementptr inbounds i8, ptr %98, i64 1
  %100 = load i8, ptr %99, align 1
  %101 = zext i8 %100 to i32
  %102 = and i32 %101, 15
  %103 = shl i32 %102, 2
  %104 = load ptr, ptr %5, align 8
  %105 = getelementptr inbounds i8, ptr %104, i64 2
  %106 = load i8, ptr %105, align 1
  %107 = zext i8 %106 to i32
  %108 = ashr i32 %107, 6
  %109 = add nsw i32 %103, %108
  %110 = sext i32 %109 to i64
  %111 = getelementptr inbounds [65 x i8], ptr @base64_table, i64 0, i64 %110
  %112 = load i8, ptr %111, align 1
  %113 = load ptr, ptr %7, align 8
  %114 = getelementptr inbounds i8, ptr %113, i32 1
  store ptr %114, ptr %7, align 8
  store i8 %112, ptr %113, align 1
  %115 = load ptr, ptr %5, align 8
  %116 = getelementptr inbounds i8, ptr %115, i64 2
  %117 = load i8, ptr %116, align 1
  %118 = zext i8 %117 to i32
  %119 = and i32 %118, 63
  %120 = sext i32 %119 to i64
  %121 = getelementptr inbounds [65 x i8], ptr @base64_table, i64 0, i64 %120
  %122 = load i8, ptr %121, align 1
  %123 = load ptr, ptr %7, align 8
  %124 = getelementptr inbounds i8, ptr %123, i32 1
  store ptr %124, ptr %7, align 8
  store i8 %122, ptr %123, align 1
  %125 = load ptr, ptr %5, align 8
  %126 = getelementptr inbounds i8, ptr %125, i64 3
  store ptr %126, ptr %5, align 8
  %127 = load i64, ptr %6, align 8
  %128 = sub i64 %127, 3
  store i64 %128, ptr %6, align 8
  br label %69

129:                                              ; preds = %69
  %130 = load i64, ptr %6, align 8
  %131 = icmp ne i64 %130, 0
  br i1 %131, label %132, label %190

132:                                              ; preds = %129
  %133 = load ptr, ptr %5, align 8
  %134 = load i8, ptr %133, align 1
  %135 = zext i8 %134 to i32
  %136 = ashr i32 %135, 2
  %137 = sext i32 %136 to i64
  %138 = getelementptr inbounds [65 x i8], ptr @base64_table, i64 0, i64 %137
  %139 = load i8, ptr %138, align 1
  %140 = load ptr, ptr %7, align 8
  %141 = getelementptr inbounds i8, ptr %140, i32 1
  store ptr %141, ptr %7, align 8
  store i8 %139, ptr %140, align 1
  %142 = load i64, ptr %6, align 8
  %143 = icmp ugt i64 %142, 1
  br i1 %143, label %144, label %174

144:                                              ; preds = %132
  %145 = load ptr, ptr %5, align 8
  %146 = load i8, ptr %145, align 1
  %147 = zext i8 %146 to i32
  %148 = and i32 %147, 3
  %149 = shl i32 %148, 4
  %150 = load ptr, ptr %5, align 8
  %151 = getelementptr inbounds i8, ptr %150, i64 1
  %152 = load i8, ptr %151, align 1
  %153 = zext i8 %152 to i32
  %154 = ashr i32 %153, 4
  %155 = add nsw i32 %149, %154
  %156 = sext i32 %155 to i64
  %157 = getelementptr inbounds [65 x i8], ptr @base64_table, i64 0, i64 %156
  %158 = load i8, ptr %157, align 1
  %159 = load ptr, ptr %7, align 8
  %160 = getelementptr inbounds i8, ptr %159, i32 1
  store ptr %160, ptr %7, align 8
  store i8 %158, ptr %159, align 1
  %161 = load ptr, ptr %5, align 8
  %162 = getelementptr inbounds i8, ptr %161, i64 1
  %163 = load i8, ptr %162, align 1
  %164 = zext i8 %163 to i32
  %165 = and i32 %164, 15
  %166 = shl i32 %165, 2
  %167 = sext i32 %166 to i64
  %168 = getelementptr inbounds [65 x i8], ptr @base64_table, i64 0, i64 %167
  %169 = load i8, ptr %168, align 1
  %170 = load ptr, ptr %7, align 8
  %171 = getelementptr inbounds i8, ptr %170, i32 1
  store ptr %171, ptr %7, align 8
  store i8 %169, ptr %170, align 1
  %172 = load ptr, ptr %7, align 8
  %173 = getelementptr inbounds i8, ptr %172, i32 1
  store ptr %173, ptr %7, align 8
  store i8 61, ptr %172, align 1
  br label %189

174:                                              ; preds = %132
  %175 = load ptr, ptr %5, align 8
  %176 = load i8, ptr %175, align 1
  %177 = zext i8 %176 to i32
  %178 = and i32 %177, 3
  %179 = shl i32 %178, 4
  %180 = sext i32 %179 to i64
  %181 = getelementptr inbounds [65 x i8], ptr @base64_table, i64 0, i64 %180
  %182 = load i8, ptr %181, align 1
  %183 = load ptr, ptr %7, align 8
  %184 = getelementptr inbounds i8, ptr %183, i32 1
  store ptr %184, ptr %7, align 8
  store i8 %182, ptr %183, align 1
  %185 = load ptr, ptr %7, align 8
  %186 = getelementptr inbounds i8, ptr %185, i32 1
  store ptr %186, ptr %7, align 8
  store i8 61, ptr %185, align 1
  %187 = load ptr, ptr %7, align 8
  %188 = getelementptr inbounds i8, ptr %187, i32 1
  store ptr %188, ptr %7, align 8
  store i8 61, ptr %187, align 1
  br label %189

189:                                              ; preds = %174, %144
  br label %190

190:                                              ; preds = %189, %129
  %191 = load ptr, ptr %7, align 8
  store i8 0, ptr %191, align 1
  %192 = load ptr, ptr %7, align 8
  store ptr %192, ptr %15, align 8
  %193 = load ptr, ptr %15, align 8
  %194 = load ptr, ptr %16, align 8
  %195 = getelementptr inbounds %struct._zend_string, ptr %194, i32 0, i32 3
  %196 = getelementptr inbounds [1 x i8], ptr %195, i64 0, i64 0
  %197 = ptrtoint ptr %193 to i64
  %198 = ptrtoint ptr %196 to i64
  %199 = sub i64 %197, %198
  %200 = load ptr, ptr %16, align 8
  %201 = getelementptr inbounds %struct._zend_string, ptr %200, i32 0, i32 2
  store i64 %199, ptr %201, align 8
  %202 = load ptr, ptr %16, align 8
  ret ptr %202
}