; Function Attrs: nounwind uwtable
define hidden noundef ptr @php_base64_encode_default(ptr nocapture noundef readonly %0, i64 noundef %1) #6 {
  %3 = add i64 %1, 2
  %4 = udiv i64 %3, 3
  %5 = tail call noalias ptr @_safe_emalloc(i64 noundef %4, i64 noundef 4, i64 noundef 32) #10
  store i32 1, ptr %5, align 4
  %6 = getelementptr inbounds i8, ptr %5, i64 4
  store i32 22, ptr %6, align 4
  %7 = getelementptr inbounds i8, ptr %5, i64 8
  store i64 0, ptr %7, align 8
  %8 = shl i64 %4, 2
  %9 = getelementptr inbounds i8, ptr %5, i64 16
  store i64 %8, ptr %9, align 8
  %10 = getelementptr inbounds i8, ptr %5, i64 24
  %11 = icmp ugt i64 %1, 2
  br i1 %11, label %.lr.ph, label %._crit_edge

.lr.ph:                                           ; preds = %2, %.lr.ph
  %.059 = phi ptr [ %43, %.lr.ph ], [ %0, %2 ]
  %.05558 = phi i64 [ %44, %.lr.ph ], [ %1, %2 ]
  %.05657 = phi ptr [ %42, %.lr.ph ], [ %10, %2 ]
  %12 = load i8, ptr %.059, align 1
  %13 = lshr i8 %12, 2
  %14 = zext nneg i8 %13 to i64
  %15 = getelementptr inbounds [65 x i8], ptr @base64_table, i64 0, i64 %14
  %16 = load i8, ptr %15, align 1
  %17 = getelementptr inbounds i8, ptr %.05657, i64 1
  store i8 %16, ptr %.05657, align 1
  %18 = shl i8 %12, 4
  %19 = and i8 %18, 48
  %20 = getelementptr inbounds i8, ptr %.059, i64 1
  %21 = load i8, ptr %20, align 1
  %22 = lshr i8 %21, 4
  %23 = or disjoint i8 %22, %19
  %24 = zext nneg i8 %23 to i64
  %25 = getelementptr inbounds [65 x i8], ptr @base64_table, i64 0, i64 %24
  %26 = load i8, ptr %25, align 1
  %27 = getelementptr inbounds i8, ptr %.05657, i64 2
  store i8 %26, ptr %17, align 1
  %28 = shl i8 %21, 2
  %29 = and i8 %28, 60
  %30 = getelementptr inbounds i8, ptr %.059, i64 2
  %31 = load i8, ptr %30, align 1
  %32 = lshr i8 %31, 6
  %33 = or disjoint i8 %32, %29
  %34 = zext nneg i8 %33 to i64
  %35 = getelementptr inbounds [65 x i8], ptr @base64_table, i64 0, i64 %34
  %36 = load i8, ptr %35, align 1
  %37 = getelementptr inbounds i8, ptr %.05657, i64 3
  store i8 %36, ptr %27, align 1
  %38 = and i8 %31, 63
  %39 = zext nneg i8 %38 to i64
  %40 = getelementptr inbounds [65 x i8], ptr @base64_table, i64 0, i64 %39
  %41 = load i8, ptr %40, align 1
  %42 = getelementptr inbounds i8, ptr %.05657, i64 4
  store i8 %41, ptr %37, align 1
  %43 = getelementptr inbounds i8, ptr %.059, i64 3
  %44 = add i64 %.05558, -3
  %45 = icmp ugt i64 %44, 2
  br i1 %45, label %.lr.ph, label %._crit_edge

._crit_edge:                                      ; preds = %.lr.ph, %2
  %.056.lcssa = phi ptr [ %10, %2 ], [ %42, %.lr.ph ]
  %.055.lcssa = phi i64 [ %1, %2 ], [ %44, %.lr.ph ]
  %.0.lcssa = phi ptr [ %0, %2 ], [ %43, %.lr.ph ]
  %.not = icmp eq i64 %.055.lcssa, 0
  br i1 %.not, label %76, label %46

46:                                               ; preds = %._crit_edge
  %47 = load i8, ptr %.0.lcssa, align 1
  %48 = lshr i8 %47, 2
  %49 = zext nneg i8 %48 to i64
  %50 = getelementptr inbounds [65 x i8], ptr @base64_table, i64 0, i64 %49
  %51 = load i8, ptr %50, align 1
  %52 = getelementptr inbounds i8, ptr %.056.lcssa, i64 1
  store i8 %51, ptr %.056.lcssa, align 1
  %53 = icmp eq i64 %.055.lcssa, 2
  %54 = shl i8 %47, 4
  %55 = and i8 %54, 48
  br i1 %53, label %56, label %70

56:                                               ; preds = %46
  %57 = getelementptr inbounds i8, ptr %.0.lcssa, i64 1
  %58 = load i8, ptr %57, align 1
  %59 = lshr i8 %58, 4
  %60 = or disjoint i8 %59, %55
  %61 = zext nneg i8 %60 to i64
  %62 = getelementptr inbounds [65 x i8], ptr @base64_table, i64 0, i64 %61
  %63 = load i8, ptr %62, align 1
  %64 = getelementptr inbounds i8, ptr %.056.lcssa, i64 2
  store i8 %63, ptr %52, align 1
  %65 = shl i8 %58, 2
  %66 = and i8 %65, 60
  %67 = zext nneg i8 %66 to i64
  %68 = getelementptr inbounds [65 x i8], ptr @base64_table, i64 0, i64 %67
  %69 = load i8, ptr %68, align 4
  store i8 %69, ptr %64, align 1
  br label %.sink.split

70:                                               ; preds = %46
  %71 = zext nneg i8 %55 to i64
  %72 = getelementptr inbounds [65 x i8], ptr @base64_table, i64 0, i64 %71
  %73 = load i8, ptr %72, align 16
  %74 = getelementptr inbounds i8, ptr %.056.lcssa, i64 2
  store i8 %73, ptr %52, align 1
  store i8 61, ptr %74, align 1
  br label %.sink.split

.sink.split:                                      ; preds = %70, %56
  %.sink = getelementptr inbounds i8, ptr %.056.lcssa, i64 3
  %75 = getelementptr inbounds i8, ptr %.056.lcssa, i64 4
  store i8 61, ptr %.sink, align 1
  br label %76

76:                                               ; preds = %.sink.split, %._crit_edge
  %.1 = phi ptr [ %.056.lcssa, %._crit_edge ], [ %75, %.sink.split ]
  store i8 0, ptr %.1, align 1
  %77 = ptrtoint ptr %.1 to i64
  %78 = ptrtoint ptr %10 to i64
  %79 = sub i64 %77, %78
  store i64 %79, ptr %9, align 8
  ret ptr %5
}